target datalayout = "e-m:e-p270:32:32-p271:32:32-p272:64:64-i64:64-i128:128-f80:128-n8:16:32:64-S128"
target triple = "x86_64-pc-linux-gnu"

%struct.MatchState = type { ptr, ptr, ptr, i32, i32, [32 x %struct.anon.2] }
%struct.anon.2 = type { ptr, i64 }

; Function Attrs: nounwind uwtable
define internal void @push_onecapture(ptr noundef %0, i32 noundef %1, ptr noundef %2, ptr noundef %3) #0 {
  %5 = alloca ptr, align 8
  %6 = alloca i32, align 4
  %7 = alloca ptr, align 8
  %8 = alloca ptr, align 8
  %9 = alloca i64, align 8
  store ptr %0, ptr %5, align 8, !tbaa !71
  store i32 %1, ptr %6, align 4, !tbaa !30
  store ptr %2, ptr %7, align 8, !tbaa !31
  store ptr %3, ptr %8, align 8, !tbaa !31
  %10 = load i32, ptr %6, align 4, !tbaa !30
  %11 = load ptr, ptr %5, align 8, !tbaa !71
  %12 = getelementptr inbounds nuw %struct.MatchState, ptr %11, i32 0, i32 3
  %13 = load i32, ptr %12, align 8, !tbaa !58
  %14 = icmp sge i32 %10, %13
  br i1 %14, label %15, label %33

15:                                               ; preds = %4
  %16 = load i32, ptr %6, align 4, !tbaa !30
  %17 = icmp eq i32 %16, 0
  br i1 %17, label %18, label %28

18:                                               ; preds = %15
  %19 = load ptr, ptr %5, align 8, !tbaa !71
  %20 = getelementptr inbounds nuw %struct.MatchState, ptr %19, i32 0, i32 2
  %21 = load ptr, ptr %20, align 8, !tbaa !53
  %22 = load ptr, ptr %7, align 8, !tbaa !31
  %23 = load ptr, ptr %8, align 8, !tbaa !31
  %24 = load ptr, ptr %7, align 8, !tbaa !31
  %25 = ptrtoint ptr %23 to i64
  %26 = ptrtoint ptr %24 to i64
  %27 = sub i64 %25, %26
  call void @lua_pushlstring(ptr noundef %21, ptr noundef %22, i64 noundef %27)
  br label %32

28:                                               ; preds = %15
  %29 = load ptr, ptr %5, align 8, !tbaa !71
  %30 = getelementptr inbounds nuw %struct.MatchState, ptr %29, i32 0, i32 2
  %31 = load ptr, ptr %30, align 8, !tbaa !53
  call void @lj_err_caller(ptr noundef %31, i32 noundef 1869) #8
  unreachable

32:                                               ; preds = %18
  br label %81

33:                                               ; preds = %4
  call void @llvm.lifetime.start.p0(i64 8, ptr %9) #7
  %34 = load ptr, ptr %5, align 8, !tbaa !71
  %35 = getelementptr inbounds nuw %struct.MatchState, ptr %34, i32 0, i32 5
  %36 = load i32, ptr %6, align 4, !tbaa !30
  %37 = sext i32 %36 to i64
  %38 = getelementptr inbounds [32 x %struct.anon.2], ptr %35, i64 0, i64 %37
  %39 = getelementptr inbounds nuw %struct.anon.2, ptr %38, i32 0, i32 1
  %40 = load i64, ptr %39, align 8, !tbaa !76
  store i64 %40, ptr %9, align 8, !tbaa !52
  %41 = load i64, ptr %9, align 8, !tbaa !52
  %42 = icmp eq i64 %41, -1
  br i1 %42, label %43, label %47

43:                                               ; preds = %33
  %44 = load ptr, ptr %5, align 8, !tbaa !71
  %45 = getelementptr inbounds nuw %struct.MatchState, ptr %44, i32 0, i32 2
  %46 = load ptr, ptr %45, align 8, !tbaa !53
  call void @lj_err_caller(ptr noundef %46, i32 noundef 1909) #8
  unreachable

47:                                               ; preds = %33
  %48 = load i64, ptr %9, align 8, !tbaa !52
  %49 = icmp eq i64 %48, -2
  br i1 %49, label %50, label %68

50:                                               ; preds = %47
  %51 = load ptr, ptr %5, align 8, !tbaa !71
  %52 = getelementptr inbounds nuw %struct.MatchState, ptr %51, i32 0, i32 2
  %53 = load ptr, ptr %52, align 8, !tbaa !53
  %54 = load ptr, ptr %5, align 8, !tbaa !71
  %55 = getelementptr inbounds nuw %struct.MatchState, ptr %54, i32 0, i32 5
  %56 = load i32, ptr %6, align 4, !tbaa !30
  %57 = sext i32 %56 to i64
  %58 = getelementptr inbounds [32 x %struct.anon.2], ptr %55, i64 0, i64 %57
  %59 = getelementptr inbounds nuw %struct.anon.2, ptr %58, i32 0, i32 0
  %60 = load ptr, ptr %59, align 8, !tbaa !74
  %61 = load ptr, ptr %5, align 8, !tbaa !71
  %62 = getelementptr inbounds nuw %struct.MatchState, ptr %61, i32 0, i32 0
  %63 = load ptr, ptr %62, align 8, !tbaa !55
  %64 = ptrtoint ptr %60 to i64
  %65 = ptrtoint ptr %63 to i64
  %66 = sub i64 %64, %65
  %67 = add nsw i64 %66, 1
  call void @lua_pushinteger(ptr noundef %53, i64 noundef %67)
  br label %80

68:                                               ; preds = %47
  %69 = load ptr, ptr %5, align 8, !tbaa !71
  %70 = getelementptr inbounds nuw %struct.MatchState, ptr %69, i32 0, i32 2
  %71 = load ptr, ptr %70, align 8, !tbaa !53
  %72 = load ptr, ptr %5, align 8, !tbaa !71
  %73 = getelementptr inbounds nuw %struct.MatchState, ptr %72, i32 0, i32 5
  %74 = load i32, ptr %6, align 4, !tbaa !30
  %75 = sext i32 %74 to i64
  %76 = getelementptr inbounds [32 x %struct.anon.2], ptr %73, i64 0, i64 %75
  %77 = getelementptr inbounds nuw %struct.anon.2, ptr %76, i32 0, i32 0
  %78 = load ptr, ptr %77, align 8, !tbaa !74
  %79 = load i64, ptr %9, align 8, !tbaa !52
  call void @lua_pushlstring(ptr noundef %71, ptr noundef %78, i64 noundef %79)
  br label %80

80:                                               ; preds = %68, %50
  call void @llvm.lifetime.end.p0(i64 8, ptr %9) #7
  br label %81

81:                                               ; preds = %80, %32
  ret void
}