; Function Attrs: nounwind uwtable
define internal fastcc void @push_onecapture(ptr noundef nonnull readonly captures(none) %0, i32 noundef %1, ptr noundef %2, ptr noundef %3) unnamed_addr #0 {
  %5 = getelementptr inbounds nuw i8, ptr %0, i64 24
  %6 = load i32, ptr %5, align 8, !tbaa !49
  %.not = icmp slt i32 %1, %6
  br i1 %.not, label %16, label %7

7:                                                ; preds = %4
  %8 = icmp eq i32 %1, 0
  %9 = getelementptr inbounds nuw i8, ptr %0, i64 16
  %10 = load ptr, ptr %9, align 8, !tbaa !43
  br i1 %8, label %11, label %15

11:                                               ; preds = %7
  %12 = ptrtoint ptr %3 to i64
  %13 = ptrtoint ptr %2 to i64
  %14 = sub i64 %12, %13
  tail call void @lua_pushlstring(ptr noundef %10, ptr noundef %2, i64 noundef %14) #7
  br label %34

15:                                               ; preds = %7
  tail call void @lj_err_caller(ptr noundef %10, i32 noundef 1869) #8
  unreachable

16:                                               ; preds = %4
  %17 = getelementptr inbounds nuw i8, ptr %0, i64 32
  %18 = sext i32 %1 to i64
  %19 = getelementptr inbounds [32 x %struct.anon.2], ptr %17, i64 0, i64 %18
  %20 = getelementptr inbounds nuw i8, ptr %19, i64 8
  %21 = load i64, ptr %20, align 8, !tbaa !54
  %22 = getelementptr inbounds nuw i8, ptr %0, i64 16
  %23 = load ptr, ptr %22, align 8, !tbaa !43
  switch i64 %21, label %32 [
    i64 -1, label %24
    i64 -2, label %25
  ]

24:                                               ; preds = %16
  tail call void @lj_err_caller(ptr noundef %23, i32 noundef 1909) #8
  unreachable

25:                                               ; preds = %16
  %26 = load ptr, ptr %19, align 8, !tbaa !56
  %27 = load ptr, ptr %0, align 8, !tbaa !46
  %28 = ptrtoint ptr %26 to i64
  %29 = ptrtoint ptr %27 to i64
  %30 = add i64 %28, 1
  %31 = sub i64 %30, %29
  tail call void @lua_pushinteger(ptr noundef %23, i64 noundef %31) #7
  br label %34

32:                                               ; preds = %16
  %33 = load ptr, ptr %19, align 8, !tbaa !56
  tail call void @lua_pushlstring(ptr noundef %23, ptr noundef %33, i64 noundef %21) #7
  br label %34

34:                                               ; preds = %25, %32, %11
  ret void
}